target datalayout = "e-m:e-p270:32:32-p271:32:32-p272:64:64-i64:64-i128:128-f80:128-n8:16:32:64-S128"
target triple = "x86_64-pc-linux-gnu"

%struct.lua_TValue = type { %union.Value, [1 x i32], i32 }
%union.Value = type { ptr }
%struct.lua_State = type { i8, i8, i8, i8, i8, i8, i8, ptr, ptr, ptr, ptr, ptr, ptr, ptr, ptr, i32, i32, i16, i16, i32, ptr, ptr, ptr, ptr, ptr }
%struct.GCheader = type { i8, i8, i8 }
%struct.Closure = type { i8, i8, i8, i8, i8, i8, i8, ptr, ptr, %union.anon.0 }
%union.anon.0 = type { %struct.anon }
%struct.anon = type { ptr, ptr, ptr, [1 x %struct.lua_TValue] }
%struct.LuaTable = type { i8, i8, i8, i8, i8, i8, i8, i8, i32, %union.anon.2, ptr, ptr, ptr, ptr }
%union.anon.2 = type { i32 }

@luaO_nilobject_ = external hidden global %struct.lua_TValue, align 8

; Function Attrs: alwaysinline mustprogress uwtable
define internal noundef ptr @_ZL10index2addrP9lua_Statei(ptr noundef %0, i32 noundef %1) #2 {
  %3 = alloca ptr, align 8
  %4 = alloca ptr, align 8
  %5 = alloca i32, align 4
  %6 = alloca ptr, align 8
  %7 = alloca i32, align 4
  store ptr %0, ptr %4, align 8, !tbaa !4
  store i32 %1, ptr %5, align 4, !tbaa !9
  %8 = load i32, ptr %5, align 4, !tbaa !9
  %9 = icmp sgt i32 %8, 0
  br i1 %9, label %10, label %27

10:                                               ; preds = %2
  call void @llvm.lifetime.start.p0(i64 8, ptr %6) #11
  %11 = load ptr, ptr %4, align 8, !tbaa !4
  %12 = getelementptr inbounds nuw %struct.lua_State, ptr %11, i32 0, i32 8
  %13 = load ptr, ptr %12, align 8, !tbaa !13
  %14 = load i32, ptr %5, align 4, !tbaa !9
  %15 = sub nsw i32 %14, 1
  %16 = sext i32 %15 to i64
  %17 = getelementptr inbounds %struct.lua_TValue, ptr %13, i64 %16
  store ptr %17, ptr %6, align 8, !tbaa !11
  %18 = load ptr, ptr %6, align 8, !tbaa !11
  %19 = load ptr, ptr %4, align 8, !tbaa !4
  %20 = getelementptr inbounds nuw %struct.lua_State, ptr %19, i32 0, i32 7
  %21 = load ptr, ptr %20, align 8, !tbaa !23
  %22 = icmp uge ptr %18, %21
  br i1 %22, label %23, label %24

23:                                               ; preds = %10
  store ptr @luaO_nilobject_, ptr %3, align 8
  store i32 1, ptr %7, align 4
  br label %26

24:                                               ; preds = %10
  %25 = load ptr, ptr %6, align 8, !tbaa !11
  store ptr %25, ptr %3, align 8
  store i32 1, ptr %7, align 4
  br label %26

26:                                               ; preds = %24, %23
  call void @llvm.lifetime.end.p0(i64 8, ptr %6) #11
  br label %41

27:                                               ; preds = %2
  %28 = load i32, ptr %5, align 4, !tbaa !9
  %29 = icmp sgt i32 %28, -10000
  br i1 %29, label %30, label %37

30:                                               ; preds = %27
  %31 = load ptr, ptr %4, align 8, !tbaa !4
  %32 = getelementptr inbounds nuw %struct.lua_State, ptr %31, i32 0, i32 7
  %33 = load ptr, ptr %32, align 8, !tbaa !23
  %34 = load i32, ptr %5, align 4, !tbaa !9
  %35 = sext i32 %34 to i64
  %36 = getelementptr inbounds %struct.lua_TValue, ptr %33, i64 %35
  store ptr %36, ptr %3, align 8
  br label %41

37:                                               ; preds = %27
  %38 = load ptr, ptr %4, align 8, !tbaa !4
  %39 = load i32, ptr %5, align 4, !tbaa !9
  %40 = call noundef ptr @_ZL11pseudo2addrP9lua_Statei(ptr noundef %38, i32 noundef %39)
  store ptr %40, ptr %3, align 8
  br label %41

41:                                               ; preds = %37, %30, %26
  %42 = load ptr, ptr %3, align 8
  ret ptr %42
}

; Function Attrs: mustprogress uwtable
define dso_local noundef i32 @_Z11lua_setfenvP9lua_Statei(ptr noundef %0, i32 noundef %1) #0 {
  %3 = alloca ptr, align 8
  %4 = alloca i32, align 4
  %5 = alloca i32, align 4
  %6 = alloca ptr, align 8
  store ptr %0, ptr %3, align 8, !tbaa !4
  store i32 %1, ptr %4, align 4, !tbaa !9
  call void @llvm.lifetime.start.p0(i64 4, ptr %5) #11
  store i32 1, ptr %5, align 4, !tbaa !9
  call void @llvm.lifetime.start.p0(i64 8, ptr %6) #11
  %7 = load ptr, ptr %3, align 8, !tbaa !4
  %8 = load i32, ptr %4, align 4, !tbaa !9
  %9 = call noundef ptr @_ZL10index2addrP9lua_Statei(ptr noundef %7, i32 noundef %8)
  store ptr %9, ptr %6, align 8, !tbaa !11
  %10 = load ptr, ptr %6, align 8, !tbaa !11
  %11 = getelementptr inbounds nuw %struct.lua_TValue, ptr %10, i32 0, i32 2
  %12 = load i32, ptr %11, align 4, !tbaa !49
  switch i32 %12, label %35 [
    i32 7, label %13
    i32 9, label %24
  ]

13:                                               ; preds = %2
  %14 = load ptr, ptr %3, align 8, !tbaa !4
  %15 = getelementptr inbounds nuw %struct.lua_State, ptr %14, i32 0, i32 7
  %16 = load ptr, ptr %15, align 8, !tbaa !23
  %17 = getelementptr inbounds %struct.lua_TValue, ptr %16, i64 -1
  %18 = getelementptr inbounds nuw %struct.lua_TValue, ptr %17, i32 0, i32 0
  %19 = load ptr, ptr %18, align 8, !tbaa !25
  %20 = load ptr, ptr %6, align 8, !tbaa !11
  %21 = getelementptr inbounds nuw %struct.lua_TValue, ptr %20, i32 0, i32 0
  %22 = load ptr, ptr %21, align 8, !tbaa !25
  %23 = getelementptr inbounds nuw %struct.Closure, ptr %22, i32 0, i32 8
  store ptr %19, ptr %23, align 8, !tbaa !59
  br label %36

24:                                               ; preds = %2
  %25 = load ptr, ptr %3, align 8, !tbaa !4
  %26 = getelementptr inbounds nuw %struct.lua_State, ptr %25, i32 0, i32 7
  %27 = load ptr, ptr %26, align 8, !tbaa !23
  %28 = getelementptr inbounds %struct.lua_TValue, ptr %27, i64 -1
  %29 = getelementptr inbounds nuw %struct.lua_TValue, ptr %28, i32 0, i32 0
  %30 = load ptr, ptr %29, align 8, !tbaa !25
  %31 = load ptr, ptr %6, align 8, !tbaa !11
  %32 = getelementptr inbounds nuw %struct.lua_TValue, ptr %31, i32 0, i32 0
  %33 = load ptr, ptr %32, align 8, !tbaa !25
  %34 = getelementptr inbounds nuw %struct.lua_State, ptr %33, i32 0, i32 20
  store ptr %30, ptr %34, align 8, !tbaa !61
  br label %36

35:                                               ; preds = %2
  store i32 0, ptr %5, align 4, !tbaa !9
  br label %36

36:                                               ; preds = %35, %24, %13
  %37 = load i32, ptr %5, align 4, !tbaa !9
  %38 = icmp ne i32 %37, 0
  br i1 %38, label %39, label %76

39:                                               ; preds = %36
  %40 = load ptr, ptr %6, align 8, !tbaa !11
  %41 = getelementptr inbounds nuw %struct.lua_TValue, ptr %40, i32 0, i32 0
  %42 = load ptr, ptr %41, align 8, !tbaa !25
  %43 = getelementptr inbounds %struct.GCheader, ptr %42, i64 0
  %44 = getelementptr inbounds nuw %struct.GCheader, ptr %43, i32 0, i32 1
  %45 = load i8, ptr %44, align 1, !tbaa !25
  %46 = zext i8 %45 to i32
  %47 = and i32 %46, 4
  %48 = icmp ne i32 %47, 0
  br i1 %48, label %49, label %75

49:                                               ; preds = %39
  %50 = load ptr, ptr %3, align 8, !tbaa !4
  %51 = getelementptr inbounds nuw %struct.lua_State, ptr %50, i32 0, i32 7
  %52 = load ptr, ptr %51, align 8, !tbaa !23
  %53 = getelementptr inbounds %struct.lua_TValue, ptr %52, i64 -1
  %54 = getelementptr inbounds nuw %struct.lua_TValue, ptr %53, i32 0, i32 0
  %55 = load ptr, ptr %54, align 8, !tbaa !25
  %56 = getelementptr inbounds %struct.LuaTable, ptr %55, i64 0
  %57 = getelementptr inbounds nuw %struct.GCheader, ptr %56, i32 0, i32 1
  %58 = load i8, ptr %57, align 1, !tbaa !25
  %59 = zext i8 %58 to i32
  %60 = and i32 %59, 3
  %61 = icmp ne i32 %60, 0
  br i1 %61, label %62, label %75

62:                                               ; preds = %49
  %63 = load ptr, ptr %3, align 8, !tbaa !4
  %64 = load ptr, ptr %6, align 8, !tbaa !11
  %65 = getelementptr inbounds nuw %struct.lua_TValue, ptr %64, i32 0, i32 0
  %66 = load ptr, ptr %65, align 8, !tbaa !25
  %67 = getelementptr inbounds %struct.GCheader, ptr %66, i64 0
  %68 = load ptr, ptr %3, align 8, !tbaa !4
  %69 = getelementptr inbounds nuw %struct.lua_State, ptr %68, i32 0, i32 7
  %70 = load ptr, ptr %69, align 8, !tbaa !23
  %71 = getelementptr inbounds %struct.lua_TValue, ptr %70, i64 -1
  %72 = getelementptr inbounds nuw %struct.lua_TValue, ptr %71, i32 0, i32 0
  %73 = load ptr, ptr %72, align 8, !tbaa !25
  %74 = getelementptr inbounds %struct.LuaTable, ptr %73, i64 0
  call void @_Z13luaC_barrierfP9lua_StateP8GCObjectS2_(ptr noundef %63, ptr noundef %67, ptr noundef %74)
  br label %75

75:                                               ; preds = %62, %49, %39
  br label %76

76:                                               ; preds = %75, %36
  %77 = load ptr, ptr %3, align 8, !tbaa !4
  %78 = getelementptr inbounds nuw %struct.lua_State, ptr %77, i32 0, i32 7
  %79 = load ptr, ptr %78, align 8, !tbaa !23
  %80 = getelementptr inbounds %struct.lua_TValue, ptr %79, i32 -1
  store ptr %80, ptr %78, align 8, !tbaa !23
  %81 = load i32, ptr %5, align 4, !tbaa !9
  call void @llvm.lifetime.end.p0(i64 8, ptr %6) #11
  call void @llvm.lifetime.end.p0(i64 4, ptr %5) #11
  ret i32 %81
}