; Function Attrs: mustprogress uwtable
define dso_local noundef range(i32 0, 2) i32 @_Z11lua_setfenvP9lua_Statei(ptr noundef %0, i32 noundef %1) local_unnamed_addr #3 {
  %3 = icmp sgt i32 %1, 0
  br i1 %3, label %4, label %12

4:                                                ; preds = %2
  %5 = getelementptr inbounds nuw i8, ptr %0, i64 16
  %6 = load ptr, ptr %5, align 8, !tbaa !4
  %7 = zext nneg i32 %1 to i64
  %8 = getelementptr %struct.lua_TValue, ptr %6, i64 %7
  %9 = getelementptr i8, ptr %8, i64 -16
  %10 = getelementptr inbounds nuw i8, ptr %0, i64 8
  %11 = load ptr, ptr %10, align 8, !tbaa !19
  %.not.i = icmp ult ptr %9, %11
  %.luaO_nilobject_.i = select i1 %.not.i, ptr %9, ptr @luaO_nilobject_
  br label %_ZL10index2addrP9lua_Statei.exit

12:                                               ; preds = %2
  %13 = icmp sgt i32 %1, -10000
  br i1 %13, label %14, label %19

14:                                               ; preds = %12
  %15 = getelementptr inbounds nuw i8, ptr %0, i64 8
  %16 = load ptr, ptr %15, align 8, !tbaa !19
  %17 = sext i32 %1 to i64
  %18 = getelementptr inbounds %struct.lua_TValue, ptr %16, i64 %17
  br label %_ZL10index2addrP9lua_Statei.exit

19:                                               ; preds = %12
  %20 = tail call fastcc noundef ptr @_ZL11pseudo2addrP9lua_Statei(ptr noundef %0, i32 noundef %1)
  br label %_ZL10index2addrP9lua_Statei.exit

_ZL10index2addrP9lua_Statei.exit:                 ; preds = %4, %14, %19
  %.1.i = phi ptr [ %.luaO_nilobject_.i, %4 ], [ %18, %14 ], [ %20, %19 ]
  %21 = getelementptr inbounds nuw i8, ptr %.1.i, i64 12
  %22 = load i32, ptr %21, align 4, !tbaa !47
  switch i32 %22, label %40 [
    i32 7, label %24
    i32 9, label %23
  ]

23:                                               ; preds = %_ZL10index2addrP9lua_Statei.exit
  br label %24

24:                                               ; preds = %_ZL10index2addrP9lua_Statei.exit, %23
  %.sink22 = phi i64 [ 88, %23 ], [ 16, %_ZL10index2addrP9lua_Statei.exit ]
  %25 = getelementptr inbounds nuw i8, ptr %0, i64 8
  %26 = load ptr, ptr %25, align 8, !tbaa !19
  %27 = getelementptr inbounds i8, ptr %26, i64 -16
  %28 = load ptr, ptr %27, align 8, !tbaa !21
  %29 = load ptr, ptr %.1.i, align 8, !tbaa !21
  %30 = getelementptr inbounds nuw i8, ptr %29, i64 %.sink22
  store ptr %28, ptr %30, align 8, !tbaa !74
  %31 = load ptr, ptr %.1.i, align 8, !tbaa !21
  %32 = getelementptr inbounds nuw i8, ptr %31, i64 1
  %33 = load i8, ptr %32, align 1, !tbaa !21
  %34 = and i8 %33, 4
  %.not14 = icmp eq i8 %34, 0
  br i1 %.not14, label %40, label %35

35:                                               ; preds = %24
  %36 = getelementptr inbounds nuw i8, ptr %28, i64 1
  %37 = load i8, ptr %36, align 1, !tbaa !21
  %38 = and i8 %37, 3
  %.not15 = icmp eq i8 %38, 0
  br i1 %.not15, label %40, label %39

39:                                               ; preds = %35
  tail call void @_Z13luaC_barrierfP9lua_StateP8GCObjectS2_(ptr noundef nonnull %0, ptr noundef nonnull %31, ptr noundef nonnull %28)
  br label %40

40:                                               ; preds = %_ZL10index2addrP9lua_Statei.exit, %24, %35, %39
  %.019 = phi i32 [ 1, %24 ], [ 1, %35 ], [ 1, %39 ], [ 0, %_ZL10index2addrP9lua_Statei.exit ]
  %41 = getelementptr inbounds nuw i8, ptr %0, i64 8
  %42 = load ptr, ptr %41, align 8, !tbaa !19
  %43 = getelementptr inbounds i8, ptr %42, i64 -16
  store ptr %43, ptr %41, align 8, !tbaa !19
  ret i32 %.019
}